Certificate:
    Data:
        Version: 3 (0x2)
        Serial Number: 3 (0x3)
    Signature Algorithm: sha256WithRSAEncryption
        Issuer: C=US, ST=MD, L=Baltimore, CN=Test CA/emailAddress=test@example.com
        Validity
            Not Before: Nov 29 00:38:23 2014 GMT
            Not After : Aug 25 00:38:23 2017 GMT
        Subject: C=US, ST=Arizona, L=NA, O=Manticore, OU=Manticore, CN=localhost
        Subject Public Key Info:
            Public Key Algorithm: rsaEncryption
                Public-Key: (2048 bit)
                Modulus:
                    00:b8:23:52:7d:01:5b:b2:b4:2b:b2:06:59:83:40:
                    3f:d9:84:9c:a0:1e:12:e1:18:dd:99:04:f7:76:98:
                    1b:34:39:f9:cd:3b:67:ab:b7:dc:e8:e6:35:1a:46:
                    f1:c0:2a:14:ec:eb:f8:26:98:c7:76:53:7f:51:4e:
                    73:78:72:a1:ed:11:56:f2:0e:9f:fd:ef:36:38:bf:
                    be:6b:2f:d8:88:2e:4f:25:d7:ca:89:55:26:dd:b1:
                    b1:1d:67:d7:f2:ba:3f:4c:9c:b3:58:f8:9d:74:d0:
                    55:52:8d:f3:48:47:e9:82:ba:75:4f:8c:8f:8c:6f:
                    6b:68:a1:23:99:2a:8b:dd:71:36:55:65:c2:d5:c2:
                    79:e4:5e:c3:db:0c:53:99:6d:6a:77:57:4b:f4:be:
                    ac:98:c4:04:01:b0:b1:32:a4:4b:6d:d5:fc:ca:ac:
                    bd:20:7a:f4:c2:b1:11:58:c6:c5:1b:8d:d6:89:99:
                    be:04:eb:78:4a:02:bf:8f:92:b8:d7:4f:aa:fa:81:
                    1e:28:5a:31:5e:8e:82:26:3a:11:19:c6:6d:47:e9:
                    c2:f0:05:62:bf:3c:ce:79:6f:b9:1d:57:da:4d:51:
                    eb:57:4c:dc:f9:b9:38:ca:c7:4e:75:da:bb:01:0b:
                    d1:99:2b:da:cc:ff:00:13:23:5a:3e:2a:c5:d2:c6:
                    e0:e7
                Exponent: 65537 (0x10001)
        X509v3 extensions:
            X509v3 Subject Key Identifier: 
                00:AD:24:E9:F6:F5:82:D6:44:2E:DB:A3:16:75:E4:B9:56:5E:87:55
            X509v3 Authority Key Identifier: 
                keyid:C8:B7:44:26:1E:FA:12:7F:5E:DE:C1:D0:A8:91:36:CE:43:A5:8A:41

            X509v3 Basic Constraints: 
                CA:FALSE
            X509v3 Key Usage: 
                Digital Signature, Non Repudiation, Key Encipherment
    Signature Algorithm: sha256WithRSAEncryption
         99:1b:a2:a5:63:03:22:70:62:4a:ff:3d:c7:46:53:25:9d:4c:
         9c:73:4f:b6:fa:cd:7a:57:cb:96:3b:8f:58:4e:26:b4:30:ea:
         39:25:ad:8f:f9:ce:8c:87:ef:fc:5a:8e:94:3e:37:ac:35:e2:
         d1:4f:e2:1c:59:33:4c:19:08:33:53:6b:d3:da:d1:2b:7a:90:
         2a:15:f6:49:4f:95:4a:34:46:a1:a6:43:15:2d:c5:bc:e8:1b:
         9a:1c:bd:f3:01:b1:60:16:5d:7e:1b:52:9c:08:d6:b8:2e:68:
         2c:68:11:65:52:8a:52:fa:86:ee:a7:9f:bc:a7:54:a0:4d:3e:
         78:4a:f6:fb:a5:ed:83:51:68:93:e5:46:c4:c9:30:ff:76:ee:
         e3:e6:cd:c6:7f:1f:19:61:01:0d:5e:05:c3:38:fa:c2:dd:c3:
         ec:0a:18:5e:bf:66:6b:c1:09:9b:38:47:43:69:09:9f:91:ff:
         4c:2c:71:d9:4a:63:0a:84:68:ef:ac:d3:29:f8:16:dc:d5:3f:
         38:8b:14:a1:a6:00:c2:b4:5d:53:7f:14:ce:fc:74:f4:cc:c2:
         ee:9f:b6:9c:22:6c:af:1c:a5:ee:36:f7:ef:f2:02:80:18:69:
         eb:ec:bc:03:df:b6:e1:3f:6f:a2:26:57:a0:6b:23:2f:05:bd:
         7a:36:db:41:7f:2e:30:b4:06:a6:47:9d:a7:8a:f3:3b:6e:b8:
         b1:86:14:a0:38:2c:64:14:cb:df:4e:b3:47:f4:a0:e1:50:02:
         cc:20:db:01:31:77:35:35:e9:ad:2b:f5:4f:f9:40:35:fb:1a:
         ad:33:fd:37:7d:e9:52:65:11:df:d6:6a:9e:dd:ed:54:c1:25:
         71:33:08:5b:62:18:67:c8:4e:d6:82:64:f7:d7:3b:b8:9d:5d:
         55:36:fc:6f:da:97:56:48:91:28:e8:fa:38:5f:a3:c6:60:b5:
         35:f0:a9:bf:15:40:d0:fb:3a:42:df:e8:25:82:ff:19:93:a8:
         57:dc:f2:2c:5f:de:1a:13:c6:c9:e3:5d:a8:f7:d9:6e:66:0d:
         3e:fc:ea:59:25:89:2c:ff:91:0e:3e:08:83:25:2f:f2:de:3e:
         ec:be:27:64:3c:84:20:20:47:1b:2a:e6:1f:33:6c:15:af:86:
         79:86:a5:0a:12:d3:89:0b:82:b4:98:cc:02:7b:ef:b6:4f:5a:
         ef:96:7a:d9:51:dc:b7:41:b4:a3:23:6a:ed:32:22:76:88:b6:
         ec:e5:be:cb:a6:98:b3:35:d5:74:7e:5f:1c:97:a3:ac:f6:75:
         e0:98:64:57:4c:22:ea:c4:93:37:cb:74:28:c6:a0:fe:eb:ec:
         48:00:cc:06:97:de:82:7c
-----BEGIN CERTIFICATE-----
MIIEnjCCAoagAwIBAgIBAzANBgkqhkiG9w0BAQsFADBhMQswCQYDVQQGEwJVUzEL
MAkGA1UECAwCTUQxEjAQBgNVBAcMCUJhbHRpbW9yZTEQMA4GA1UEAwwHVGVzdCBD
QTEfMB0GCSqGSIb3DQEJARYQdGVzdEBleGFtcGxlLmNvbTAeFw0xNDExMjkwMDM4
MjNaFw0xNzA4MjUwMDM4MjNaMGgxCzAJBgNVBAYTAlVTMRAwDgYDVQQIDAdBcml6
b25hMQswCQYDVQQHDAJOQTESMBAGA1UECgwJTWFudGljb3JlMRIwEAYDVQQLDAlN
YW50aWNvcmUxEjAQBgNVBAMMCWxvY2FsaG9zdDCCASIwDQYJKoZIhvcNAQEBBQAD
ggEPADCCAQoCggEBALgjUn0BW7K0K7IGWYNAP9mEnKAeEuEY3ZkE93aYGzQ5+c07
Z6u33OjmNRpG8cAqFOzr+CaYx3ZTf1FOc3hyoe0RVvIOn/3vNji/vmsv2IguTyXX
yolVJt2xsR1n1/K6P0ycs1j4nXTQVVKN80hH6YK6dU+Mj4xva2ihI5kqi91xNlVl
wtXCeeRew9sMU5ltandXS/S+rJjEBAGwsTKkS23V/MqsvSB69MKxEVjGxRuN1omZ
vgTreEoCv4+SuNdPqvqBHihaMV6OgiY6ERnGbUfpwvAFYr88znlvuR1X2k1R61dM
3Pm5OMrHTnXauwEL0Zkr2sz/ABMjWj4qxdLG4OcCAwEAAaNaMFgwHQYDVR0OBBYE
FACtJOn29YLWRC7boxZ15LlWXodVMB8GA1UdIwQYMBaAFMi3RCYe+hJ/Xt7B0KiR
Ns5DpYpBMAkGA1UdEwQCMAAwCwYDVR0PBAQDAgXgMA0GCSqGSIb3DQEBCwUAA4IC
AQCZG6KlYwMicGJK/z3HRlMlnUycc0+2+s16V8uWO49YTia0MOo5Ja2P+c6Mh+/8
Wo6UPjesNeLRT+IcWTNMGQgzU2vT2tErepAqFfZJT5VKNEahpkMVLcW86BuaHL3z
AbFgFl1+G1KcCNa4LmgsaBFlUopS+obup5+8p1SgTT54Svb7pe2DUWiT5UbEyTD/
du7j5s3Gfx8ZYQENXgXDOPrC3cPsChhev2ZrwQmbOEdDaQmfkf9MLHHZSmMKhGjv
rNMp+Bbc1T84ixShpgDCtF1TfxTO/HT0zMLun7acImyvHKXuNvfv8gKAGGnr7LwD
37bhP2+iJlegayMvBb16NttBfy4wtAamR52nivM7brixhhSgOCxkFMvfTrNH9KDh
UALMINsBMXc1NemtK/VP+UA1+xqtM/03felSZRHf1mqe3e1UwSVxMwhbYhhnyE7W
gmT31zu4nV1VNvxv2pdWSJEo6Po4X6PGYLU18Km/FUDQ+zpC3+glgv8Zk6hX3PIs
X94aE8bJ412o99luZg0+/OpZJYks/5EOPgiDJS/y3j7svidkPIQgIEcbKuYfM2wV
r4Z5hqUKEtOJC4K0mMwCe++2T1rvlnrZUdy3QbSjI2rtMiJ2iLbs5b7LppizNdV0
fl8cl6Os9nXgmGRXTCLqxJM3y3QoxqD+6+xIAMwGl96CfA==
-----END CERTIFICATE-----
